; Function Attrs: mustprogress nounwind uwtable
define internal fastcc void @"_ZZN6V3Task18taskConnectWrapNewEP12AstNodeFTaskRKNSt7__cxx1112basic_stringIcSt11char_traitsIcESaIcEEERKSt6vectorISt4pairIP6AstVarP6AstArgESaISG_EERKSt3setIPKSC_St4lessISN_ESaISN_EEEN3$_0D2Ev"(ptr noundef nonnull align 8 dereferenceable(48) %0) unnamed_addr #5 align 2 personality ptr @__gxx_personality_v0 {
  %2 = getelementptr inbounds i8, ptr %0, i64 16
  %3 = load ptr, ptr %2, align 8
  invoke void @_ZNSt8_Rb_treeIPK6AstVarSt4pairIKS2_PS0_ESt10_Select1stIS6_ESt4lessIS2_ESaIS6_EE8_M_eraseEPSt13_Rb_tree_nodeIS6_E(ptr noundef nonnull align 8 dereferenceable(48) %0, ptr noundef %3)
          to label %_ZNSt3mapIPK6AstVarPS0_St4lessIS2_ESaISt4pairIKS2_S3_EEED2Ev.exit unwind label %4

4:                                                ; preds = %1
  %5 = landingpad { ptr, i32 }
          catch ptr null
  %6 = extractvalue { ptr, i32 } %5, 0
  tail call void @__clang_call_terminate(ptr %6) #26
  unreachable

_ZNSt3mapIPK6AstVarPS0_St4lessIS2_ESaISt4pairIKS2_S3_EEED2Ev.exit: ; preds = %1
  ret void
}